target datalayout = "e-m:e-p270:32:32-p271:32:32-p272:64:64-i64:64-i128:128-f80:128-n8:16:32:64-S128"
target triple = "x86_64-pc-linux-gnu"

%struct.mbedtls_md_context_t = type { ptr, ptr, ptr }

; Function Attrs: nounwind uwtable
define internal i32 @pem_pbkdf1(ptr noundef %0, i64 noundef %1, ptr noundef %2, ptr noundef %3, i64 noundef %4) #0 {
  %6 = alloca ptr, align 8
  %7 = alloca i64, align 8
  %8 = alloca ptr, align 8
  %9 = alloca ptr, align 8
  %10 = alloca i64, align 8
  %11 = alloca %struct.mbedtls_md_context_t, align 8
  %12 = alloca ptr, align 8
  %13 = alloca [16 x i8], align 16
  %14 = alloca i64, align 8
  %15 = alloca i32, align 4
  store ptr %0, ptr %6, align 8, !tbaa !8
  store i64 %1, ptr %7, align 8, !tbaa !10
  store ptr %2, ptr %8, align 8, !tbaa !8
  store ptr %3, ptr %9, align 8, !tbaa !8
  store i64 %4, ptr %10, align 8, !tbaa !10
  call void @llvm.lifetime.start.p0(i64 24, ptr %11) #9
  call void @llvm.lifetime.start.p0(i64 8, ptr %12) #9
  call void @llvm.lifetime.start.p0(i64 16, ptr %13) #9
  call void @llvm.lifetime.start.p0(i64 8, ptr %14) #9
  call void @llvm.lifetime.start.p0(i64 4, ptr %15) #9
  store i32 -110, ptr %15, align 4, !tbaa !14
  call void @mbedtls_md_init(ptr noundef %11)
  %16 = call ptr @mbedtls_md_info_from_type(i32 noundef 3)
  store ptr %16, ptr %12, align 8, !tbaa !25
  %17 = load ptr, ptr %12, align 8, !tbaa !25
  %18 = call i32 @mbedtls_md_setup(ptr noundef %11, ptr noundef %17, i32 noundef 0)
  store i32 %18, ptr %15, align 4, !tbaa !14
  %19 = icmp ne i32 %18, 0
  br i1 %19, label %20, label %21

20:                                               ; preds = %5
  br label %86

21:                                               ; preds = %5
  %22 = call i32 @mbedtls_md_starts(ptr noundef %11)
  store i32 %22, ptr %15, align 4, !tbaa !14
  %23 = icmp ne i32 %22, 0
  br i1 %23, label %24, label %25

24:                                               ; preds = %21
  br label %86

25:                                               ; preds = %21
  %26 = load ptr, ptr %9, align 8, !tbaa !8
  %27 = load i64, ptr %10, align 8, !tbaa !10
  %28 = call i32 @mbedtls_md_update(ptr noundef %11, ptr noundef %26, i64 noundef %27)
  store i32 %28, ptr %15, align 4, !tbaa !14
  %29 = icmp ne i32 %28, 0
  br i1 %29, label %30, label %31

30:                                               ; preds = %25
  br label %86

31:                                               ; preds = %25
  %32 = load ptr, ptr %8, align 8, !tbaa !8
  %33 = call i32 @mbedtls_md_update(ptr noundef %11, ptr noundef %32, i64 noundef 8)
  store i32 %33, ptr %15, align 4, !tbaa !14
  %34 = icmp ne i32 %33, 0
  br i1 %34, label %35, label %36

35:                                               ; preds = %31
  br label %86

36:                                               ; preds = %31
  %37 = getelementptr inbounds [16 x i8], ptr %13, i64 0, i64 0
  %38 = call i32 @mbedtls_md_finish(ptr noundef %11, ptr noundef %37)
  store i32 %38, ptr %15, align 4, !tbaa !14
  %39 = icmp ne i32 %38, 0
  br i1 %39, label %40, label %41

40:                                               ; preds = %36
  br label %86

41:                                               ; preds = %36
  %42 = load i64, ptr %7, align 8, !tbaa !10
  %43 = icmp ule i64 %42, 16
  br i1 %43, label %44, label %48

44:                                               ; preds = %41
  %45 = load ptr, ptr %6, align 8, !tbaa !8
  %46 = getelementptr inbounds [16 x i8], ptr %13, i64 0, i64 0
  %47 = load i64, ptr %7, align 8, !tbaa !10
  call void @llvm.memcpy.p0.p0.i64(ptr align 1 %45, ptr align 16 %46, i64 %47, i1 false)
  br label %86

48:                                               ; preds = %41
  %49 = load ptr, ptr %6, align 8, !tbaa !8
  %50 = getelementptr inbounds [16 x i8], ptr %13, i64 0, i64 0
  call void @llvm.memcpy.p0.p0.i64(ptr align 1 %49, ptr align 16 %50, i64 16, i1 false)
  %51 = call i32 @mbedtls_md_starts(ptr noundef %11)
  store i32 %51, ptr %15, align 4, !tbaa !14
  %52 = icmp ne i32 %51, 0
  br i1 %52, label %53, label %54

53:                                               ; preds = %48
  br label %86

54:                                               ; preds = %48
  %55 = getelementptr inbounds [16 x i8], ptr %13, i64 0, i64 0
  %56 = call i32 @mbedtls_md_update(ptr noundef %11, ptr noundef %55, i64 noundef 16)
  store i32 %56, ptr %15, align 4, !tbaa !14
  %57 = icmp ne i32 %56, 0
  br i1 %57, label %58, label %59

58:                                               ; preds = %54
  br label %86

59:                                               ; preds = %54
  %60 = load ptr, ptr %9, align 8, !tbaa !8
  %61 = load i64, ptr %10, align 8, !tbaa !10
  %62 = call i32 @mbedtls_md_update(ptr noundef %11, ptr noundef %60, i64 noundef %61)
  store i32 %62, ptr %15, align 4, !tbaa !14
  %63 = icmp ne i32 %62, 0
  br i1 %63, label %64, label %65

64:                                               ; preds = %59
  br label %86

65:                                               ; preds = %59
  %66 = load ptr, ptr %8, align 8, !tbaa !8
  %67 = call i32 @mbedtls_md_update(ptr noundef %11, ptr noundef %66, i64 noundef 8)
  store i32 %67, ptr %15, align 4, !tbaa !14
  %68 = icmp ne i32 %67, 0
  br i1 %68, label %69, label %70

69:                                               ; preds = %65
  br label %86

70:                                               ; preds = %65
  %71 = getelementptr inbounds [16 x i8], ptr %13, i64 0, i64 0
  %72 = call i32 @mbedtls_md_finish(ptr noundef %11, ptr noundef %71)
  store i32 %72, ptr %15, align 4, !tbaa !14
  %73 = icmp ne i32 %72, 0
  br i1 %73, label %74, label %75

74:                                               ; preds = %70
  br label %86

75:                                               ; preds = %70
  store i64 16, ptr %14, align 8, !tbaa !10
  %76 = load i64, ptr %7, align 8, !tbaa !10
  %77 = icmp ult i64 %76, 32
  br i1 %77, label %78, label %81

78:                                               ; preds = %75
  %79 = load i64, ptr %7, align 8, !tbaa !10
  %80 = sub i64 %79, 16
  store i64 %80, ptr %14, align 8, !tbaa !10
  br label %81

81:                                               ; preds = %78, %75
  %82 = load ptr, ptr %6, align 8, !tbaa !8
  %83 = getelementptr inbounds i8, ptr %82, i64 16
  %84 = getelementptr inbounds [16 x i8], ptr %13, i64 0, i64 0
  %85 = load i64, ptr %14, align 8, !tbaa !10
  call void @llvm.memcpy.p0.p0.i64(ptr align 1 %83, ptr align 16 %84, i64 %85, i1 false)
  br label %86

86:                                               ; preds = %81, %74, %69, %64, %58, %53, %44, %40, %35, %30, %24, %20
  call void @mbedtls_md_free(ptr noundef %11)
  %87 = getelementptr inbounds [16 x i8], ptr %13, i64 0, i64 0
  call void @mbedtls_platform_zeroize(ptr noundef %87, i64 noundef 16)
  %88 = load i32, ptr %15, align 4, !tbaa !14
  call void @llvm.lifetime.end.p0(i64 4, ptr %15) #9
  call void @llvm.lifetime.end.p0(i64 8, ptr %14) #9
  call void @llvm.lifetime.end.p0(i64 16, ptr %13) #9
  call void @llvm.lifetime.end.p0(i64 8, ptr %12) #9
  call void @llvm.lifetime.end.p0(i64 24, ptr %11) #9
  ret i32 %88
}