; Function Attrs: nounwind uwtable
define internal fastcc i32 @pem_pbkdf1(ptr noundef nonnull writeonly captures(none) %0, i64 noundef range(i64 8, 33) %1, ptr noundef nonnull %2, ptr noundef nonnull %3, i64 noundef %4) unnamed_addr #2 {
  %6 = alloca %struct.mbedtls_md_context_t, align 8
  %7 = alloca [16 x i8], align 16
  call void @llvm.lifetime.start.p0(i64 24, ptr nonnull %6) #12
  call void @llvm.lifetime.start.p0(i64 16, ptr nonnull %7) #12
  call void @mbedtls_md_init(ptr noundef nonnull %6) #12
  %8 = call ptr @mbedtls_md_info_from_type(i32 noundef 3) #12
  %9 = call i32 @mbedtls_md_setup(ptr noundef nonnull %6, ptr noundef %8, i32 noundef 0) #12
  %.not = icmp eq i32 %9, 0
  br i1 %.not, label %10, label %33

10:                                               ; preds = %5
  %11 = call i32 @mbedtls_md_starts(ptr noundef nonnull %6) #12
  %.not29 = icmp eq i32 %11, 0
  br i1 %.not29, label %12, label %33

12:                                               ; preds = %10
  %13 = call i32 @mbedtls_md_update(ptr noundef nonnull %6, ptr noundef nonnull %3, i64 noundef %4) #12
  %.not30 = icmp eq i32 %13, 0
  br i1 %.not30, label %14, label %33

14:                                               ; preds = %12
  %15 = call i32 @mbedtls_md_update(ptr noundef nonnull %6, ptr noundef nonnull %2, i64 noundef 8) #12
  %.not31 = icmp eq i32 %15, 0
  br i1 %.not31, label %16, label %33

16:                                               ; preds = %14
  %17 = call i32 @mbedtls_md_finish(ptr noundef nonnull %6, ptr noundef nonnull %7) #12
  %.not32 = icmp eq i32 %17, 0
  br i1 %.not32, label %18, label %33

18:                                               ; preds = %16
  %19 = icmp samesign ult i64 %1, 17
  br i1 %19, label %20, label %21

20:                                               ; preds = %18
  call void @llvm.memcpy.p0.p0.i64(ptr noundef nonnull align 1 dereferenceable(1) %0, ptr noundef nonnull align 16 dereferenceable(1) %7, i64 %1, i1 false)
  br label %33

21:                                               ; preds = %18
  call void @llvm.memcpy.p0.p0.i64(ptr noundef nonnull align 1 dereferenceable(16) %0, ptr noundef nonnull align 16 dereferenceable(16) %7, i64 16, i1 false)
  %22 = call i32 @mbedtls_md_starts(ptr noundef nonnull %6) #12
  %.not33 = icmp eq i32 %22, 0
  br i1 %.not33, label %23, label %33

23:                                               ; preds = %21
  %24 = call i32 @mbedtls_md_update(ptr noundef nonnull %6, ptr noundef nonnull %7, i64 noundef 16) #12
  %.not34 = icmp eq i32 %24, 0
  br i1 %.not34, label %25, label %33

25:                                               ; preds = %23
  %26 = call i32 @mbedtls_md_update(ptr noundef nonnull %6, ptr noundef nonnull %3, i64 noundef %4) #12
  %.not35 = icmp eq i32 %26, 0
  br i1 %.not35, label %27, label %33

27:                                               ; preds = %25
  %28 = call i32 @mbedtls_md_update(ptr noundef nonnull %6, ptr noundef nonnull %2, i64 noundef 8) #12
  %.not36 = icmp eq i32 %28, 0
  br i1 %.not36, label %29, label %33

29:                                               ; preds = %27
  %30 = call i32 @mbedtls_md_finish(ptr noundef nonnull %6, ptr noundef nonnull %7) #12
  %.not37 = icmp eq i32 %30, 0
  br i1 %.not37, label %31, label %33

31:                                               ; preds = %29
  %spec.select = add nsw i64 %1, -16
  %32 = getelementptr inbounds nuw i8, ptr %0, i64 16
  call void @llvm.memcpy.p0.p0.i64(ptr nonnull align 1 %32, ptr nonnull align 16 %7, i64 %spec.select, i1 false)
  br label %33

33:                                               ; preds = %29, %27, %25, %23, %21, %16, %14, %12, %10, %5, %31, %20
  %.0 = phi i32 [ %9, %5 ], [ %11, %10 ], [ %13, %12 ], [ %15, %14 ], [ %17, %16 ], [ 0, %20 ], [ %22, %21 ], [ %24, %23 ], [ %26, %25 ], [ %28, %27 ], [ %30, %29 ], [ 0, %31 ]
  call void @mbedtls_md_free(ptr noundef nonnull %6) #12
  call void @mbedtls_platform_zeroize(ptr noundef nonnull %7, i64 noundef 16) #12
  call void @llvm.lifetime.end.p0(i64 16, ptr nonnull %7) #12
  call void @llvm.lifetime.end.p0(i64 24, ptr nonnull %6) #12
  ret i32 %.0
}